	.file	"program.c"
	.option nopic
	.attribute arch, "rv64i2p1_m2p0_a2p1_f2p2_d2p2_c2p0_zicsr2p0"
	.attribute unaligned_access, 0
	.attribute stack_align, 16
	.text
	.section	.rodata
	.align	3
.LC0:
	.string	"Different of Sum: %d"
	.text
	.align	1
	.globl	main
	.type	main, @function
main:
.LFB0:
	.cfi_startproc
	addi	sp,sp,-32
	.cfi_def_cfa_offset 32
	sd	ra,24(sp)
	sd	s0,16(sp)
	.cfi_offset 1, -8
	.cfi_offset 8, -16
	addi	s0,sp,32
	.cfi_def_cfa 8, 0
	li	a3,5
	li	a2,4
	li	a1,3
	li	a0,2
	call	diffofsums
	mv	a5,a0
	sw	a5,-20(s0)
	lw	a5,-20(s0)
	mv	a1,a5
	lui	a5,%hi(.LC0)
	addi	a0,a5,%lo(.LC0)
	call	printf
	nop
	ld	ra,24(sp)
	.cfi_restore 1
	ld	s0,16(sp)
	.cfi_restore 8
	.cfi_def_cfa 2, 32
	addi	sp,sp,32
	.cfi_def_cfa_offset 0
	jr	ra
	.cfi_endproc
.LFE0:
	.size	main, .-main
	.align	1
	.globl	diffofsums
	.type	diffofsums, @function
diffofsums:
.LFB1:
	.cfi_startproc
	addi	sp,sp,-48
	.cfi_def_cfa_offset 48
	sd	s0,40(sp)
	.cfi_offset 8, -8
	addi	s0,sp,48
	.cfi_def_cfa 8, 0
	mv	a5,a0
	mv	a4,a3
	sw	a5,-36(s0)
	mv	a5,a1
	sw	a5,-40(s0)
	mv	a5,a2
	sw	a5,-44(s0)
	mv	a5,a4
	sw	a5,-48(s0)
	lw	a5,-36(s0)
	mv	a4,a5
	lw	a5,-40(s0)
	addw	a5,a4,a5
	sext.w	a4,a5
	lw	a5,-44(s0)
	mv	a3,a5
	lw	a5,-48(s0)
	addw	a5,a3,a5
	sext.w	a5,a5
	subw	a5,a4,a5
	sw	a5,-20(s0)
	lw	a5,-20(s0)
	mv	a0,a5
	ld	s0,40(sp)
	.cfi_restore 8
	.cfi_def_cfa 2, 48
	addi	sp,sp,48
	.cfi_def_cfa_offset 0
	jr	ra
	.cfi_endproc
.LFE1:
	.size	diffofsums, .-diffofsums
	.ident	"GCC: () 13.2.0"
	.section	.note.GNU-stack,"",@progbits
